; Function Attrs: nounwind uwtable
define internal fastcc ptr @ReorderBufferTXNByXid(ptr noundef %0, i32 noundef %1, i1 noundef zeroext %2, ptr noundef writeonly captures(address_is_null) %3, i64 noundef %4, i1 noundef zeroext %5) unnamed_addr #0 {
  %7 = alloca i32, align 4
  %8 = alloca i8, align 1
  store i32 %1, ptr %7, align 4
  call void @llvm.lifetime.start.p0(i64 1, ptr nonnull %8) #19
  %9 = getelementptr inbounds nuw i8, ptr %0, i64 64
  %10 = load i32, ptr %9, align 8
  %.not = icmp ne i32 %10, 0
  %11 = icmp eq i32 %10, %1
  %or.cond = and i1 %.not, %11
  br i1 %or.cond, label %12, label %17

12:                                               ; preds = %6
  %13 = getelementptr inbounds nuw i8, ptr %0, i64 72
  %14 = load ptr, ptr %13, align 8
  %.not34 = icmp eq ptr %14, null
  br i1 %.not34, label %16, label %15

15:                                               ; preds = %12
  %.not36 = icmp eq ptr %3, null
  br i1 %.not36, label %62, label %.sink.split

16:                                               ; preds = %12
  br i1 %2, label %17, label %62

17:                                               ; preds = %16, %6
  %18 = load ptr, ptr %0, align 8
  %19 = zext i1 %2 to i32
  %20 = call ptr @hash_search(ptr noundef %18, ptr noundef nonnull %7, i32 noundef %19, ptr noundef nonnull %8) #19
  %21 = load i8, ptr %8, align 1, !range !6, !noundef !7
  %22 = trunc nuw i8 %21 to i1
  br i1 %22, label %23, label %26

23:                                               ; preds = %17
  %24 = getelementptr inbounds nuw i8, ptr %20, i64 8
  %25 = load ptr, ptr %24, align 8
  br label %56

26:                                               ; preds = %17
  br i1 %2, label %27, label %56

27:                                               ; preds = %26
  %28 = getelementptr i8, ptr %0, i64 256
  %.val = load ptr, ptr %28, align 8
  %29 = call ptr @MemoryContextAlloc(ptr noundef %.val, i64 noundef 320) #19
  call void @llvm.memset.p0.i64(ptr noundef nonnull align 8 dereferenceable(320) %29, i8 0, i64 312, i1 false)
  %30 = getelementptr inbounds nuw i8, ptr %29, i64 152
  store ptr %30, ptr %30, align 8
  %31 = getelementptr inbounds nuw i8, ptr %29, i64 160
  store ptr %30, ptr %31, align 8
  %32 = getelementptr inbounds nuw i8, ptr %29, i64 168
  store ptr %32, ptr %32, align 8
  %33 = getelementptr inbounds nuw i8, ptr %29, i64 176
  store ptr %32, ptr %33, align 8
  %34 = getelementptr inbounds nuw i8, ptr %29, i64 208
  store ptr %34, ptr %34, align 8
  %35 = getelementptr inbounds nuw i8, ptr %29, i64 216
  store ptr %34, ptr %35, align 8
  %36 = getelementptr inbounds nuw i8, ptr %29, i64 128
  store i32 -1, ptr %36, align 8
  %37 = getelementptr inbounds nuw i8, ptr %29, i64 312
  store ptr null, ptr %37, align 8
  %38 = getelementptr inbounds nuw i8, ptr %20, i64 8
  store ptr %29, ptr %38, align 8
  %39 = load i32, ptr %7, align 4
  %40 = getelementptr inbounds nuw i8, ptr %29, i64 4
  store i32 %39, ptr %40, align 4
  %41 = load ptr, ptr %38, align 8
  %42 = getelementptr inbounds nuw i8, ptr %41, i64 24
  store i64 %4, ptr %42, align 8
  %43 = getelementptr inbounds nuw i8, ptr %0, i64 272
  %44 = load i64, ptr %43, align 8
  %45 = getelementptr inbounds nuw i8, ptr %41, i64 56
  store i64 %44, ptr %45, align 8
  br i1 %5, label %46, label %56

46:                                               ; preds = %27
  %47 = getelementptr inbounds nuw i8, ptr %0, i64 8
  %48 = getelementptr inbounds nuw i8, ptr %41, i64 240
  %49 = getelementptr inbounds nuw i8, ptr %0, i64 16
  %50 = load ptr, ptr %49, align 8
  %51 = icmp eq ptr %50, null
  br i1 %51, label %52, label %dlist_push_tail.exit

52:                                               ; preds = %46
  store ptr %47, ptr %47, align 8
  store ptr %47, ptr %49, align 8
  br label %dlist_push_tail.exit

dlist_push_tail.exit:                             ; preds = %46, %52
  %53 = getelementptr inbounds nuw i8, ptr %41, i64 248
  store ptr %47, ptr %53, align 8
  %54 = load ptr, ptr %47, align 8
  store ptr %54, ptr %48, align 8
  %55 = getelementptr inbounds nuw i8, ptr %54, i64 8
  store ptr %48, ptr %55, align 8
  store ptr %48, ptr %47, align 8
  br label %56

56:                                               ; preds = %26, %dlist_push_tail.exit, %27, %23
  %.030 = phi ptr [ %25, %23 ], [ %41, %dlist_push_tail.exit ], [ %41, %27 ], [ null, %26 ]
  %57 = load i32, ptr %7, align 4
  store i32 %57, ptr %9, align 8
  %58 = getelementptr inbounds nuw i8, ptr %0, i64 72
  store ptr %.030, ptr %58, align 8
  %.not35 = icmp eq ptr %3, null
  br i1 %.not35, label %62, label %59

59:                                               ; preds = %56
  %60 = load i8, ptr %8, align 1, !range !6, !noundef !7
  %61 = xor i8 %60, 1
  br label %.sink.split

.sink.split:                                      ; preds = %15, %59
  %.sink = phi i8 [ %61, %59 ], [ 0, %15 ]
  %.0.ph = phi ptr [ %.030, %59 ], [ %14, %15 ]
  store i8 %.sink, ptr %3, align 1
  br label %62

62:                                               ; preds = %.sink.split, %56, %16, %15
  %.0 = phi ptr [ %14, %15 ], [ null, %16 ], [ %.030, %56 ], [ %.0.ph, %.sink.split ]
  call void @llvm.lifetime.end.p0(i64 1, ptr nonnull %8) #19
  ret ptr %.0
}